Certificate:
    Data:
        Version: 3 (0x2)
        Serial Number: 1 (0x1)
        Signature Algorithm: sha1WithRSAEncryption
        Issuer: C=PL, ST=Wielkopolska, L=Poznan, O=UAM, OU=WMI, CN=Wydzia\xC3\x85\xC2\x82 Magi i Iluzji/emailAddress=wiktorbalaban@gmail.com
        Validity
            Not Before: Apr 18 11:18:02 2018 GMT
            Not After : Apr 18 11:18:02 2019 GMT
        Subject: C=PL, ST=Wielkopolska, L=Poznan, O=UAM, OU=WMI, CN=aaa/emailAddress=wiktorbalaban@gmail.com
        Subject Public Key Info:
            Public Key Algorithm: rsaEncryption
            RSA Public Key: (2048 bit)
                Modulus (2048 bit):
                    00:aa:17:ef:38:d9:aa:17:ce:cd:cd:e8:31:21:81:
                    ba:e9:ed:19:4d:9e:89:79:18:f2:8d:88:74:2e:06:
                    56:b7:bb:ae:5b:c9:c6:eb:d7:bb:48:f5:10:85:58:
                    10:c5:c2:29:59:32:36:ea:ab:4b:70:24:c3:5c:70:
                    28:dc:a9:5c:1a:6b:26:0f:30:d3:f3:4e:d4:9a:83:
                    4f:4a:f4:b3:da:20:69:d2:1a:a2:2e:4b:e2:a7:03:
                    cf:15:83:b9:19:a5:03:bc:34:7a:aa:55:d4:e4:61:
                    2c:fd:5a:2c:60:f1:68:f2:48:40:84:d7:ab:12:8f:
                    cf:4c:bd:ad:18:91:57:d7:aa:9d:55:75:38:13:73:
                    32:dc:f2:29:fb:2e:c2:b5:80:e3:0c:60:30:a1:da:
                    ae:c8:35:ea:d7:4e:6f:7d:f0:01:8a:b2:dd:87:a9:
                    14:86:d2:6e:89:9a:9e:73:fb:a3:f0:e9:a4:29:d4:
                    cc:92:c5:96:71:2b:f2:11:c8:a6:46:92:91:5f:fa:
                    32:c5:12:dc:20:9d:ce:99:a8:ac:1f:74:c7:17:bd:
                    9b:12:8e:56:36:6d:db:55:89:5b:43:f3:9b:46:fb:
                    c4:a6:ab:54:89:f4:ee:55:ec:3c:44:e2:d2:a3:c2:
                    07:25:10:bc:99:52:5d:f5:13:49:de:f6:9b:ef:ab:
                    d6:79
                Exponent: 65537 (0x10001)
        X509v3 extensions:
            X509v3 Basic Constraints: 
                CA:FALSE
            Netscape Comment: 
                OpenSSL Generated Certificate
            X509v3 Subject Key Identifier: 
                20:3F:FE:C7:37:92:1B:FD:96:05:F3:D0:F5:47:24:1A:69:D4:2D:3C
            X509v3 Authority Key Identifier: 
                keyid:7B:E8:80:62:24:1E:A8:F4:D4:8C:2A:BD:AA:29:FC:84:AB:B9:7A:2D

    Signature Algorithm: sha1WithRSAEncryption
        6f:26:b9:d5:b6:1a:cb:6a:25:bd:98:1d:a9:42:9d:8e:31:e4:
        d6:e4:82:5e:e1:7c:61:bf:41:f2:1a:89:ee:92:82:e3:70:24:
        93:6f:44:94:e5:17:14:6d:cf:29:e7:a6:ba:9e:ce:22:07:29:
        b4:07:82:16:c9:d1:a2:c7:1a:11:eb:f0:bc:60:d8:fc:31:ec:
        04:35:34:88:81:14:0a:bb:11:e0:d1:3c:f5:a5:28:fb:a5:ad:
        e3:7d:26:d7:2d:61:8d:70:5d:f3:94:ff:16:59:5d:88:de:04:
        d9:3f:d7:ea:fd:40:80:41:f9:4f:b3:f1:d5:bd:fd:d2:ef:2c:
        e5:81:3a:76:64:53:c2:fa:d7:79:53:aa:be:5a:8a:35:c8:26:
        4c:81:b1:ea:41:6c:35:22:3c:58:b3:a1:57:88:7d:fd:03:bb:
        eb:6e:b9:dc:04:1e:cd:fc:a0:1e:2a:77:33:10:fd:62:54:d2:
        dd:aa:5d:69:ef:56:fd:61:6c:07:38:35:32:0e:1f:93:0e:fb:
        0a:e2:fe:d0:97:48:e5:b0:50:21:d4:2e:f2:25:eb:00:8a:2b:
        d2:fa:a1:da:97:8c:6d:b9:27:24:54:97:5e:b3:fd:e9:1a:ef:
        4e:3e:00:ff:ab:2d:2c:bd:e5:4a:87:89:0d:42:2d:dd:0f:01:
        21:b1:96:f4
-----BEGIN CERTIFICATE-----
MIIEGzCCAwOgAwIBAgIBATANBgkqhkiG9w0BAQUFADCBnDELMAkGA1UEBhMCUEwx
FTATBgNVBAgMDFdpZWxrb3BvbHNrYTEPMA0GA1UEBwwGUG96bmFuMQwwCgYDVQQK
DANVQU0xDDAKBgNVBAsMA1dNSTEhMB8GA1UEAwwYV3lkemlhw4XCgiBNYWdpIGkg
SWx1emppMSYwJAYJKoZIhvcNAQkBFhd3aWt0b3JiYWxhYmFuQGdtYWlsLmNvbTAe
Fw0xODA0MTgxMTE4MDJaFw0xOTA0MTgxMTE4MDJaMIGHMQswCQYDVQQGEwJQTDEV
MBMGA1UECAwMV2llbGtvcG9sc2thMQ8wDQYDVQQHDAZQb3puYW4xDDAKBgNVBAoM
A1VBTTEMMAoGA1UECwwDV01JMQwwCgYDVQQDDANhYWExJjAkBgkqhkiG9w0BCQEW
F3dpa3RvcmJhbGFiYW5AZ21haWwuY29tMIIBIjANBgkqhkiG9w0BAQEFAAOCAQ8A
MIIBCgKCAQEAqhfvONmqF87NzegxIYG66e0ZTZ6JeRjyjYh0LgZWt7uuW8nG69e7
SPUQhVgQxcIpWTI26qtLcCTDXHAo3KlcGmsmDzDT807UmoNPSvSz2iBp0hqiLkvi
pwPPFYO5GaUDvDR6qlXU5GEs/VosYPFo8khAhNerEo/PTL2tGJFX16qdVXU4E3My
3PIp+y7CtYDjDGAwodquyDXq105vffABirLdh6kUhtJuiZqec/uj8OmkKdTMksWW
cSvyEcimRpKRX/oyxRLcIJ3OmaisH3THF72bEo5WNm3bVYlbQ/ObRvvEpqtUifTu
Vew8ROLSo8IHJRC8mVJd9RNJ3vab76vWeQIDAQABo3sweTAJBgNVHRMEAjAAMCwG
CWCGSAGG+EIBDQQfFh1PcGVuU1NMIEdlbmVyYXRlZCBDZXJ0aWZpY2F0ZTAdBgNV
HQ4EFgQUID/+xzeSG/2WBfPQ9UckGmnULTwwHwYDVR0jBBgwFoAUe+iAYiQeqPTU
jCq9qin8hKu5ei0wDQYJKoZIhvcNAQEFBQADggEBAG8mudW2GstqJb2YHalCnY4x
5Nbkgl7hfGG/QfIaie6SguNwJJNvRJTlFxRtzynnprqeziIHKbQHghbJ0aLHGhHr
8Lxg2Pwx7AQ1NIiBFAq7EeDRPPWlKPulreN9JtctYY1wXfOU/xZZXYjeBNk/1+r9
QIBB+U+z8dW9/dLvLOWBOnZkU8L613lTqr5aijXIJkyBsepBbDUiPFizoVeIff0D
u+tuudwEHs38oB4qdzMQ/WJU0t2qXWnvVv1hbAc4NTIOH5MO+wri/tCXSOWwUCHU
LvIl6wCKK9L6odqXjG25JyRUl16z/eka704+AP+rLSy95UqHiQ1CLd0PASGxlvQ=
-----END CERTIFICATE-----
