Certificate:
    Data:
        Version: 3 (0x2)
        Serial Number: 1 (0x1)
        Signature Algorithm: md5WithRSAEncryption
        Issuer: C=PL, ST=Berkshire, L=Newbury, O=My Company Ltd, CN=MH
        Validity
            Not Before: Jan  7 15:17:07 2009 GMT
            Not After : Jan  7 15:17:07 2010 GMT
        Subject: C=PL, ST=Berkshire, L=Newbury, O=My Company Ltd, CN=Michal Hanckowiak
        Subject Public Key Info:
            Public Key Algorithm: rsaEncryption
            RSA Public Key: (1024 bit)
                Modulus (1024 bit):
                    00:c1:46:aa:00:37:a5:10:51:55:8c:36:20:64:51:
                    49:84:96:e7:c9:00:76:8b:b6:97:08:7f:3e:73:bd:
                    a3:98:75:30:2d:1c:9d:86:a7:17:f9:0b:c3:29:b6:
                    e2:7f:65:d0:9e:31:51:55:a8:93:9d:cf:c0:32:05:
                    5a:03:2d:8c:62:a0:68:8b:3d:af:27:5a:c1:c5:3e:
                    64:cc:03:64:19:12:bd:22:a4:69:84:80:47:c0:dc:
                    26:24:bb:94:d0:af:e5:a1:3c:98:ca:f9:2b:e2:67:
                    ed:99:8f:fa:41:51:66:58:ba:dc:df:ac:1f:3b:8d:
                    39:13:f7:77:ff:b1:da:c3:f7
                Exponent: 65537 (0x10001)
        X509v3 extensions:
            X509v3 Basic Constraints: 
            CA:FALSE
            Netscape Comment: 
            OpenSSL Generated Certificate
            X509v3 Subject Key Identifier: 
            BB:BB:0B:73:59:BD:52:6E:1E:CC:84:F4:37:52:43:D3:4E:1D:D9:0B
            X509v3 Authority Key Identifier: 
            keyid:C7:BB:4E:E0:D2:27:F5:3B:75:47:E4:57:46:5C:C8:F5:3F:D1:34:A3
            DirName:/C=PL/ST=Berkshire/L=Newbury/O=My Company Ltd/CN=MH
            serial:00

    Signature Algorithm: md5WithRSAEncryption
        7c:39:17:06:30:b4:d8:e8:93:37:5e:77:10:e6:7f:84:af:0d:
        0c:e3:3e:40:4a:ef:90:ae:fe:1d:cb:23:3f:ba:1a:4d:63:ef:
        bb:2c:a7:58:2a:21:96:ff:bd:25:62:a8:82:49:0a:75:97:46:
        ed:e9:5e:c8:a5:4d:f3:60:4d:6c:61:61:24:0e:7c:35:6e:d9:
        37:6c:1c:8c:db:3a:d9:b6:8e:18:4f:40:80:a4:7a:11:4f:e3:
        04:23:69:b1:91:bf:24:90:33:3b:91:71:92:25:bc:ea:58:74:
        be:a2:80:e5:1c:38:46:2c:ac:bf:c6:18:a9:dc:de:7b:f2:32:
        d5:6b
-----BEGIN CERTIFICATE-----
MIIDFzCCAoCgAwIBAgIBATANBgkqhkiG9w0BAQQFADBZMQswCQYDVQQGEwJQTDES
MBAGA1UECBMJQmVya3NoaXJlMRAwDgYDVQQHEwdOZXdidXJ5MRcwFQYDVQQKEw5N
eSBDb21wYW55IEx0ZDELMAkGA1UEAxMCTUgwHhcNMDkwMTA3MTUxNzA3WhcNMTAw
MTA3MTUxNzA3WjBoMQswCQYDVQQGEwJQTDESMBAGA1UECBMJQmVya3NoaXJlMRAw
DgYDVQQHEwdOZXdidXJ5MRcwFQYDVQQKEw5NeSBDb21wYW55IEx0ZDEaMBgGA1UE
AxMRTWljaGFsIEhhbmNrb3dpYWswgZ8wDQYJKoZIhvcNAQEBBQADgY0AMIGJAoGB
AMFGqgA3pRBRVYw2IGRRSYSW58kAdou2lwh/PnO9o5h1MC0cnYanF/kLwym24n9l
0J4xUVWok53PwDIFWgMtjGKgaIs9rydawcU+ZMwDZBkSvSKkaYSAR8DcJiS7lNCv
5aE8mMr5K+Jn7ZmP+kFRZli63N+sHzuNORP3d/+x2sP3AgMBAAGjgd8wgdwwCQYD
VR0TBAIwADAsBglghkgBhvhCAQ0EHxYdT3BlblNTTCBHZW5lcmF0ZWQgQ2VydGlm
aWNhdGUwHQYDVR0OBBYEFLu7C3NZvVJuHsyE9DdSQ9NOHdkLMIGBBgNVHSMEejB4
gBTHu07g0if1O3VH5FdGXMj1P9E0o6FdpFswWTELMAkGA1UEBhMCUEwxEjAQBgNV
BAgTCUJlcmtzaGlyZTEQMA4GA1UEBxMHTmV3YnVyeTEXMBUGA1UEChMOTXkgQ29t
cGFueSBMdGQxCzAJBgNVBAMTAk1IggEAMA0GCSqGSIb3DQEBBAUAA4GBAHw5FwYw
tNjokzdedxDmf4SvDQzjPkBK75Cu/h3LIz+6Gk1j77ssp1gqIZb/vSViqIJJCnWX
Ru3pXsilTfNgTWxhYSQOfDVu2TdsHIzbOtm2jhhPQICkehFP4wQjabGRvySQMzuR
cZIlvOpYdL6igOUcOEYsrL/GGKnc3nvyMtVr
-----END CERTIFICATE-----
